target datalayout = "e-m:e-p270:32:32-p271:32:32-p272:64:64-i64:64-i128:128-f80:128-n8:16:32:64-S128"
target triple = "x86_64-unknown-linux-gnu"

%class.symbol = type { ptr }
%class.ast = type { i32, i24, i32, i32 }
%class.decl = type { %class.ast, %class.symbol, ptr }
%"class.qe::i_solver_context" = type { ptr, %"class.qe::i_solver_context::is_relevant", %"class.qe::i_solver_context::mk_atom_fn", %class.ptr_vector.59 }
%"class.qe::i_solver_context::is_relevant" = type { %class.i_expr_pred, ptr }
%class.i_expr_pred = type { ptr }
%"class.qe::i_solver_context::mk_atom_fn" = type { %"class.qe::i_nnf_atom", ptr }
%"class.qe::i_nnf_atom" = type { ptr }
%class.ptr_vector.59 = type { %class.vector.60 }
%class.vector.60 = type { ptr }
%class.decl_info = type <{ i32, i32, %class.vector.84, i8, [7 x i8] }>
%class.vector.84 = type { ptr }

; Function Attrs: mustprogress nounwind uwtable
define linkonce_odr hidden noundef i32 @_ZNK9decl_info13get_family_idEv(ptr noundef nonnull align 8 dereferenceable(17) %this) #4 comdat align 2 {
entry:
  %this.addr = alloca ptr, align 8
  store ptr %this, ptr %this.addr, align 8
  %this1 = load ptr, ptr %this.addr, align 8
  %m_family_id = getelementptr inbounds %class.decl_info, ptr %this1, i32 0, i32 0
  %0 = load i32, ptr %m_family_id, align 8
  ret i32 %0
}

; Function Attrs: mustprogress nounwind uwtable
define linkonce_odr hidden noundef nonnull align 8 dereferenceable(8) ptr @_ZN6vectorIPN2qe16qe_solver_pluginELb0EjEixEj(ptr noundef nonnull align 8 dereferenceable(8) %this, i32 noundef %idx) #4 comdat align 2 {
entry:
  %this.addr = alloca ptr, align 8
  %idx.addr = alloca i32, align 4
  store ptr %this, ptr %this.addr, align 8
  store i32 %idx, ptr %idx.addr, align 4
  %this1 = load ptr, ptr %this.addr, align 8
  %m_data = getelementptr inbounds %class.vector.60, ptr %this1, i32 0, i32 0
  %0 = load ptr, ptr %m_data, align 8
  %1 = load i32, ptr %idx.addr, align 4
  %idxprom = zext i32 %1 to i64
  %arrayidx = getelementptr inbounds ptr, ptr %0, i64 %idxprom
  ret ptr %arrayidx
}

; Function Attrs: mustprogress uwtable
define linkonce_odr hidden noundef i32 @_ZNK4decl13get_family_idEv(ptr noundef nonnull align 8 dereferenceable(32) %this) #5 comdat align 2 {
entry:
  %this.addr = alloca ptr, align 8
  store ptr %this, ptr %this.addr, align 8
  %this1 = load ptr, ptr %this.addr, align 8
  %m_info = getelementptr inbounds %class.decl, ptr %this1, i32 0, i32 2
  %0 = load ptr, ptr %m_info, align 8
  %cmp = icmp eq ptr %0, null
  br i1 %cmp, label %cond.true, label %cond.false

cond.true:                                        ; preds = %entry
  br label %cond.end

cond.false:                                       ; preds = %entry
  %m_info2 = getelementptr inbounds %class.decl, ptr %this1, i32 0, i32 2
  %1 = load ptr, ptr %m_info2, align 8
  %call = call noundef i32 @_ZNK9decl_info13get_family_idEv(ptr noundef nonnull align 8 dereferenceable(17) %1)
  br label %cond.end

cond.end:                                         ; preds = %cond.false, %cond.true
  %cond = phi i32 [ -1, %cond.true ], [ %call, %cond.false ]
  ret i32 %cond
}

; Function Attrs: mustprogress uwtable
define hidden noundef nonnull align 8 dereferenceable(32) ptr @_ZN2qe16i_solver_context6pluginEP3app(ptr noundef nonnull align 8 dereferenceable(48) %this, ptr noundef %x) #5 align 2 {
entry:
  %this.addr = alloca ptr, align 8
  %x.addr = alloca ptr, align 8
  store ptr %this, ptr %this.addr, align 8
  store ptr %x, ptr %x.addr, align 8
  %this1 = load ptr, ptr %this.addr, align 8
  %m_plugins = getelementptr inbounds %"class.qe::i_solver_context", ptr %this1, i32 0, i32 3
  %0 = load ptr, ptr %x.addr, align 8
  %call = call noundef ptr @_ZNK4expr8get_sortEv(ptr noundef nonnull align 4 dereferenceable(16) %0)
  %call2 = call noundef i32 @_ZNK4decl13get_family_idEv(ptr noundef nonnull align 8 dereferenceable(32) %call)
  %call3 = call noundef nonnull align 8 dereferenceable(8) ptr @_ZN6vectorIPN2qe16qe_solver_pluginELb0EjEixEj(ptr noundef nonnull align 8 dereferenceable(8) %m_plugins, i32 noundef %call2)
  %1 = load ptr, ptr %call3, align 8
  ret ptr %1
}