; Function Attrs: mustprogress uwtable
define hidden noundef nonnull align 8 dereferenceable(32) ptr @_ZN2qe16i_solver_context6pluginEP3app(ptr nocapture noundef nonnull readonly align 8 dereferenceable(48) %this, ptr noundef nonnull %x) local_unnamed_addr #3 align 2 {
entry:
  %call = tail call noundef ptr @_ZNK4expr8get_sortEv(ptr noundef nonnull align 4 dereferenceable(16) %x)
  %m_info.i = getelementptr inbounds i8, ptr %call, i64 24
  %0 = load ptr, ptr %m_info.i, align 8
  %cmp.i = icmp eq ptr %0, null
  br i1 %cmp.i, label %_ZNK4decl13get_family_idEv.exit, label %cond.false.i

cond.false.i:                                     ; preds = %entry
  %1 = load i32, ptr %0, align 8
  %2 = zext i32 %1 to i64
  br label %_ZNK4decl13get_family_idEv.exit

_ZNK4decl13get_family_idEv.exit:                  ; preds = %entry, %cond.false.i
  %cond.i = phi i64 [ %2, %cond.false.i ], [ 4294967295, %entry ]
  %m_plugins = getelementptr inbounds i8, ptr %this, i64 40
  %3 = load ptr, ptr %m_plugins, align 8
  %arrayidx.i = getelementptr inbounds ptr, ptr %3, i64 %cond.i
  %4 = load ptr, ptr %arrayidx.i, align 8
  ret ptr %4
}